; Function Attrs: nounwind uwtable
define dso_local range(i32 -30, 1) i32 @archive_read_set_callback_data(ptr noundef %0, ptr noundef %1) local_unnamed_addr #0 {
  %3 = tail call i32 @__archive_check_magic(ptr noundef %0, i32 noundef 14594245, i32 noundef 1, ptr noundef nonnull @.str.7) #15
  %.not.i = icmp eq i32 %3, -30
  br i1 %.not.i, label %archive_read_set_callback_data2.exit, label %4

4:                                                ; preds = %2
  %5 = getelementptr inbounds nuw i8, ptr %0, i64 224
  %6 = load i32, ptr %5, align 8, !tbaa !35
  %7 = icmp eq i32 %6, 0
  br i1 %7, label %8, label %._crit_edge

._crit_edge:                                      ; preds = %4
  %.phi.trans.insert = getelementptr inbounds nuw i8, ptr %0, i64 240
  %.pre = load ptr, ptr %.phi.trans.insert, align 8, !tbaa !36
  br label %14

8:                                                ; preds = %4
  %9 = tail call noalias dereferenceable_or_null(24) ptr @calloc(i64 noundef 1, i64 noundef 24) #14
  %10 = getelementptr inbounds nuw i8, ptr %0, i64 240
  store ptr %9, ptr %10, align 8, !tbaa !36
  %11 = icmp eq ptr %9, null
  br i1 %11, label %12, label %13

12:                                               ; preds = %8
  tail call void (ptr, i32, ptr, ...) @archive_set_error(ptr noundef nonnull %0, i32 noundef 12, ptr noundef nonnull @.str.8) #15
  br label %archive_read_set_callback_data2.exit

13:                                               ; preds = %8
  store i32 1, ptr %5, align 8, !tbaa !35
  br label %14

14:                                               ; preds = %._crit_edge, %13
  %15 = phi ptr [ %.pre, %._crit_edge ], [ %9, %13 ]
  %16 = getelementptr inbounds nuw i8, ptr %15, i64 16
  store ptr %1, ptr %16, align 8, !tbaa !37
  tail call void @llvm.memset.p0.i64(ptr noundef nonnull align 8 dereferenceable(16) %15, i8 -1, i64 16, i1 false)
  br label %archive_read_set_callback_data2.exit

archive_read_set_callback_data2.exit:             ; preds = %2, %12, %14
  %.1.i = phi i32 [ -30, %12 ], [ 0, %14 ], [ -30, %2 ]
  ret i32 %.1.i
}